; Function Attrs: mustprogress nofree norecurse nosync nounwind memory(write, argmem: readwrite, inaccessiblemem: none) uwtable
define void @ucnv_toUWriteUChars_77(ptr noundef writeonly %0, ptr noundef readonly captures(none) %1, i32 noundef %2, ptr noundef captures(none) %3, ptr noundef readnone %4, ptr noundef %5, i32 noundef %6, ptr noundef writeonly captures(none) %7) local_unnamed_addr #1 {
  %9 = load ptr, ptr %3, align 8, !tbaa !27
  %10 = icmp eq ptr %5, null
  br i1 %10, label %17, label %11

11:                                               ; preds = %8
  %12 = load ptr, ptr %5, align 8, !tbaa !12
  %13 = icmp eq ptr %12, null
  br i1 %13, label %17, label %.preheader

.preheader:                                       ; preds = %11
  %14 = icmp sgt i32 %2, 0
  %15 = icmp ult ptr %9, %4
  %16 = select i1 %14, i1 %15, i1 false
  br i1 %16, label %.lr.ph, label %._crit_edge

17:                                               ; preds = %11, %8
  %18 = icmp sgt i32 %2, 0
  %19 = icmp ult ptr %9, %4
  %20 = select i1 %18, i1 %19, i1 false
  br i1 %20, label %.lr.ph53, label %.loopexit41

.lr.ph53:                                         ; preds = %17, %.lr.ph53
  %.02951 = phi ptr [ %23, %.lr.ph53 ], [ %9, %17 ]
  %.03050 = phi ptr [ %21, %.lr.ph53 ], [ %1, %17 ]
  %.03449 = phi i32 [ %24, %.lr.ph53 ], [ %2, %17 ]
  %21 = getelementptr inbounds nuw i8, ptr %.03050, i64 2
  %22 = load i16, ptr %.03050, align 2, !tbaa !29
  %23 = getelementptr inbounds nuw i8, ptr %.02951, i64 2
  store i16 %22, ptr %.02951, align 2, !tbaa !29
  %24 = add nsw i32 %.03449, -1
  %25 = icmp samesign ugt i32 %.03449, 1
  %26 = icmp ult ptr %23, %4
  %27 = select i1 %25, i1 %26, i1 false
  br i1 %27, label %.lr.ph53, label %.loopexit41, !llvm.loop !31

.lr.ph:                                           ; preds = %.preheader, %.lr.ph
  %.045 = phi ptr [ %31, %.lr.ph ], [ %12, %.preheader ]
  %.244 = phi ptr [ %30, %.lr.ph ], [ %9, %.preheader ]
  %.23243 = phi ptr [ %28, %.lr.ph ], [ %1, %.preheader ]
  %.23642 = phi i32 [ %32, %.lr.ph ], [ %2, %.preheader ]
  %28 = getelementptr inbounds nuw i8, ptr %.23243, i64 2
  %29 = load i16, ptr %.23243, align 2, !tbaa !29
  %30 = getelementptr inbounds nuw i8, ptr %.244, i64 2
  store i16 %29, ptr %.244, align 2, !tbaa !29
  %31 = getelementptr inbounds nuw i8, ptr %.045, i64 4
  store i32 %6, ptr %.045, align 4, !tbaa !17
  %32 = add nsw i32 %.23642, -1
  %33 = icmp samesign ugt i32 %.23642, 1
  %34 = icmp ult ptr %30, %4
  %35 = select i1 %33, i1 %34, i1 false
  br i1 %35, label %.lr.ph, label %._crit_edge, !llvm.loop !32

._crit_edge:                                      ; preds = %.lr.ph, %.preheader
  %.236.lcssa = phi i32 [ %2, %.preheader ], [ %32, %.lr.ph ]
  %.232.lcssa = phi ptr [ %1, %.preheader ], [ %28, %.lr.ph ]
  %.2.lcssa = phi ptr [ %9, %.preheader ], [ %30, %.lr.ph ]
  %.0.lcssa = phi ptr [ %12, %.preheader ], [ %31, %.lr.ph ]
  store ptr %.0.lcssa, ptr %5, align 8, !tbaa !12
  br label %.loopexit41

.loopexit41:                                      ; preds = %.lr.ph53, %17, %._crit_edge
  %.135 = phi i32 [ %.236.lcssa, %._crit_edge ], [ %2, %17 ], [ %24, %.lr.ph53 ]
  %.131 = phi ptr [ %.232.lcssa, %._crit_edge ], [ %1, %17 ], [ %21, %.lr.ph53 ]
  %.1 = phi ptr [ %.2.lcssa, %._crit_edge ], [ %9, %17 ], [ %23, %.lr.ph53 ]
  store ptr %.1, ptr %3, align 8, !tbaa !27
  %36 = icmp sgt i32 %.135, 0
  br i1 %36, label %37, label %48

37:                                               ; preds = %.loopexit41
  %.not = icmp eq ptr %0, null
  br i1 %.not, label %.loopexit, label %38

38:                                               ; preds = %37
  %39 = getelementptr inbounds nuw i8, ptr %0, i64 144
  %40 = trunc i32 %.135 to i8
  %41 = getelementptr inbounds nuw i8, ptr %0, i64 93
  store i8 %40, ptr %41, align 1, !tbaa !33
  br label %42

42:                                               ; preds = %42, %38
  %.337 = phi i32 [ %.135, %38 ], [ %46, %42 ]
  %.333 = phi ptr [ %.131, %38 ], [ %43, %42 ]
  %.3 = phi ptr [ %39, %38 ], [ %45, %42 ]
  %43 = getelementptr inbounds nuw i8, ptr %.333, i64 2
  %44 = load i16, ptr %.333, align 2, !tbaa !29
  %45 = getelementptr inbounds nuw i8, ptr %.3, i64 2
  store i16 %44, ptr %.3, align 2, !tbaa !29
  %46 = add nsw i32 %.337, -1
  %47 = icmp samesign ugt i32 %.337, 1
  br i1 %47, label %42, label %.loopexit, !llvm.loop !34

.loopexit:                                        ; preds = %42, %37
  store i32 15, ptr %7, align 4, !tbaa !25
  br label %48

48:                                               ; preds = %.loopexit, %.loopexit41
  ret void
}